target datalayout = "e-m:e-p270:32:32-p271:32:32-p272:64:64-i64:64-i128:128-f80:128-n8:16:32:64-S128"
target triple = "x86_64-pc-linux-gnu"

%struct.rb_addrinfo = type { ptr, i32 }
%struct.addrinfo = type { i32, i32, i32, i32, i32, ptr, ptr, ptr }
%union.union_sockaddr = type { %struct.sockaddr_storage, [1920 x i8] }
%struct.sockaddr_storage = type { i16, [118 x i8], i64 }

; Function Attrs: alwaysinline nounwind
define internal ptr @memcpy.inline(ptr noalias nonnull %0, ptr noalias nonnull %1, i64 %2) #5 {
  %4 = alloca ptr, align 8
  %5 = alloca ptr, align 8
  %6 = alloca i64, align 8
  store ptr %0, ptr %4, align 8, !tbaa !62
  store ptr %1, ptr %5, align 8, !tbaa !62
  store i64 %2, ptr %6, align 8, !tbaa !6
  %7 = load ptr, ptr %4, align 8, !tbaa !62
  %8 = load ptr, ptr %5, align 8, !tbaa !62
  %9 = load i64, ptr %6, align 8, !tbaa !6
  %10 = load ptr, ptr %4, align 8, !tbaa !62
  %11 = call i64 @llvm.objectsize.i64.p0(ptr %10, i1 false, i1 true, i1 false)
  %12 = call ptr @__memcpy_chk(ptr noundef %7, ptr noundef %8, i64 noundef %9, i64 noundef %11) #25
  ret ptr %12
}

; Function Attrs: inlinehint nounwind sspstrong memory(argmem: readwrite, inaccessiblemem: readwrite) uwtable
define internal nonnull ptr @ruby_nonempty_memcpy(ptr noundef nonnull %0, ptr noundef %1, i64 noundef %2) #14 {
  %4 = alloca ptr, align 8
  %5 = alloca ptr, align 8
  %6 = alloca ptr, align 8
  %7 = alloca i64, align 8
  store ptr %0, ptr %5, align 8, !tbaa !62
  store ptr %1, ptr %6, align 8, !tbaa !62
  store i64 %2, ptr %7, align 8, !tbaa !6
  %8 = load i64, ptr %7, align 8, !tbaa !6
  %9 = icmp ne i64 %8, 0
  br i1 %9, label %10, label %15

10:                                               ; preds = %3
  %11 = load ptr, ptr %5, align 8, !tbaa !62
  %12 = load ptr, ptr %6, align 8, !tbaa !62
  %13 = load i64, ptr %7, align 8, !tbaa !6
  %14 = call ptr @memcpy.inline(ptr noundef %11, ptr noundef %12, i64 noundef %13) #25
  store ptr %14, ptr %4, align 8
  br label %17

15:                                               ; preds = %3
  %16 = load ptr, ptr %5, align 8, !tbaa !62
  store ptr %16, ptr %4, align 8
  br label %17

17:                                               ; preds = %15, %10
  %18 = load ptr, ptr %4, align 8
  ret ptr %18
}

; Function Attrs: nounwind sspstrong uwtable
define internal i64 @ip_s_getaddress(i64 noundef %0, i64 noundef %1) #0 {
  %3 = alloca i64, align 8
  %4 = alloca i64, align 8
  %5 = alloca %union.union_sockaddr, align 8
  %6 = alloca ptr, align 8
  %7 = alloca i32, align 4
  store i64 %0, ptr %3, align 8, !tbaa !6
  store i64 %1, ptr %4, align 8, !tbaa !6
  call void @llvm.lifetime.start.p0(i64 2048, ptr %5) #25
  call void @llvm.lifetime.start.p0(i64 8, ptr %6) #25
  %8 = load i64, ptr %4, align 8, !tbaa !6
  %9 = call ptr @rsock_addrinfo(i64 noundef %8, i64 noundef 4, i32 noundef 0, i32 noundef 1, i32 noundef 0)
  store ptr %9, ptr %6, align 8, !tbaa !12
  call void @llvm.lifetime.start.p0(i64 4, ptr %7) #25
  %10 = load ptr, ptr %6, align 8, !tbaa !12
  %11 = getelementptr inbounds nuw %struct.rb_addrinfo, ptr %10, i32 0, i32 0
  %12 = load ptr, ptr %11, align 8, !tbaa !17
  %13 = getelementptr inbounds nuw %struct.addrinfo, ptr %12, i32 0, i32 4
  %14 = load i32, ptr %13, align 8, !tbaa !106
  store i32 %14, ptr %7, align 4, !tbaa !10
  %15 = load ptr, ptr %6, align 8, !tbaa !12
  %16 = getelementptr inbounds nuw %struct.rb_addrinfo, ptr %15, i32 0, i32 0
  %17 = load ptr, ptr %16, align 8, !tbaa !17
  %18 = getelementptr inbounds nuw %struct.addrinfo, ptr %17, i32 0, i32 5
  %19 = load ptr, ptr %18, align 8, !tbaa !104
  %20 = load i32, ptr %7, align 4, !tbaa !10
  %21 = zext i32 %20 to i64
  %22 = call nonnull ptr @ruby_nonempty_memcpy(ptr noundef %5, ptr noundef %19, i64 noundef %21) #28
  %23 = load ptr, ptr %6, align 8, !tbaa !12
  call void @rb_freeaddrinfo(ptr noundef %23)
  %24 = load i32, ptr %7, align 4, !tbaa !10
  %25 = call i64 @rsock_make_ipaddr(ptr noundef %5, i32 noundef %24)
  call void @llvm.lifetime.end.p0(i64 4, ptr %7) #25
  call void @llvm.lifetime.end.p0(i64 8, ptr %6) #25
  call void @llvm.lifetime.end.p0(i64 2048, ptr %5) #25
  ret i64 %25
}