; Function Attrs: nounwind sspstrong uwtable
define internal i64 @ip_s_getaddress(i64 %0, i64 noundef %1) #0 {
  %3 = alloca %union.union_sockaddr, align 8
  call void @llvm.lifetime.start.p0(i64 2048, ptr nonnull %3) #19
  %4 = tail call ptr @rsock_addrinfo(i64 noundef %1, i64 noundef 4, i32 noundef 0, i32 noundef 1, i32 noundef 0) #19
  %5 = load ptr, ptr %4, align 8, !tbaa !59
  %6 = getelementptr inbounds nuw i8, ptr %5, i64 16
  %7 = load i32, ptr %6, align 8, !tbaa !86
  %.not.i = icmp eq i32 %7, 0
  br i1 %.not.i, label %ruby_nonempty_memcpy.exit, label %8

8:                                                ; preds = %2
  %9 = zext i32 %7 to i64
  %10 = getelementptr inbounds nuw i8, ptr %5, i64 24
  %11 = load ptr, ptr %10, align 8, !tbaa !85
  %12 = call ptr @__memcpy_chk(ptr noundef nonnull %3, ptr noundef nonnull readonly %11, i64 noundef range(i64 1, 4294967296) %9, i64 noundef 2048) #19, !alias.scope !123
  br label %ruby_nonempty_memcpy.exit

ruby_nonempty_memcpy.exit:                        ; preds = %2, %8
  call void @rb_freeaddrinfo(ptr noundef nonnull %4) #19
  %13 = call i64 @rsock_make_ipaddr(ptr noundef nonnull %3, i32 noundef %7) #19
  call void @llvm.lifetime.end.p0(i64 2048, ptr nonnull %3) #19
  ret i64 %13
}